target datalayout = "e-m:e-p270:32:32-p271:32:32-p272:64:64-i64:64-i128:128-f80:128-n8:16:32:64-S128"
target triple = "x86_64-pc-linux-gnu"

%struct.raxNode = type { i32, [0 x i8] }

@.str.1 = private unnamed_addr constant [6 x i8] c"rax.c\00", align 1
@.str.2 = private unnamed_addr constant [32 x i8] c"n->size == 0 && n->iscompr == 0\00", align 1

; Function Attrs: nounwind uwtable
define dso_local void @raxSetData(ptr noundef %0, ptr noundef %1) #0 {
  %3 = alloca ptr, align 8
  %4 = alloca ptr, align 8
  %5 = alloca ptr, align 8
  store ptr %0, ptr %3, align 8, !tbaa !11
  store ptr %1, ptr %4, align 8, !tbaa !16
  %6 = load ptr, ptr %3, align 8, !tbaa !11
  %7 = load i32, ptr %6, align 4
  %8 = and i32 %7, -2
  %9 = or i32 %8, 1
  store i32 %9, ptr %6, align 4
  %10 = load ptr, ptr %4, align 8, !tbaa !16
  %11 = icmp ne ptr %10, null
  br i1 %11, label %12, label %67

12:                                               ; preds = %2
  %13 = load ptr, ptr %3, align 8, !tbaa !11
  %14 = load i32, ptr %13, align 4
  %15 = and i32 %14, -3
  %16 = or i32 %15, 0
  store i32 %16, ptr %13, align 4
  call void @llvm.lifetime.start.p0(i64 8, ptr %5) #13
  %17 = load ptr, ptr %3, align 8, !tbaa !11
  %18 = load ptr, ptr %3, align 8, !tbaa !11
  %19 = load i32, ptr %18, align 4
  %20 = lshr i32 %19, 3
  %21 = zext i32 %20 to i64
  %22 = add i64 4, %21
  %23 = load ptr, ptr %3, align 8, !tbaa !11
  %24 = load i32, ptr %23, align 4
  %25 = lshr i32 %24, 3
  %26 = add nsw i32 %25, 4
  %27 = sext i32 %26 to i64
  %28 = urem i64 %27, 8
  %29 = sub i64 8, %28
  %30 = and i64 %29, 7
  %31 = add i64 %22, %30
  %32 = load ptr, ptr %3, align 8, !tbaa !11
  %33 = load i32, ptr %32, align 4
  %34 = lshr i32 %33, 2
  %35 = and i32 %34, 1
  %36 = icmp ne i32 %35, 0
  br i1 %36, label %37, label %38

37:                                               ; preds = %12
  br label %44

38:                                               ; preds = %12
  %39 = load ptr, ptr %3, align 8, !tbaa !11
  %40 = load i32, ptr %39, align 4
  %41 = lshr i32 %40, 3
  %42 = zext i32 %41 to i64
  %43 = mul i64 8, %42
  br label %44

44:                                               ; preds = %38, %37
  %45 = phi i64 [ 8, %37 ], [ %43, %38 ]
  %46 = add i64 %31, %45
  %47 = load ptr, ptr %3, align 8, !tbaa !11
  %48 = load i32, ptr %47, align 4
  %49 = and i32 %48, 1
  %50 = icmp ne i32 %49, 0
  br i1 %50, label %51, label %58

51:                                               ; preds = %44
  %52 = load ptr, ptr %3, align 8, !tbaa !11
  %53 = load i32, ptr %52, align 4
  %54 = lshr i32 %53, 1
  %55 = and i32 %54, 1
  %56 = icmp ne i32 %55, 0
  %57 = xor i1 %56, true
  br label %58

58:                                               ; preds = %51, %44
  %59 = phi i1 [ false, %44 ], [ %57, %51 ]
  %60 = zext i1 %59 to i32
  %61 = sext i32 %60 to i64
  %62 = mul i64 %61, 8
  %63 = add i64 %46, %62
  %64 = getelementptr inbounds nuw i8, ptr %17, i64 %63
  %65 = getelementptr inbounds i8, ptr %64, i64 -8
  store ptr %65, ptr %5, align 8, !tbaa !16
  %66 = load ptr, ptr %5, align 8, !tbaa !16
  call void @llvm.memcpy.p0.p0.i64(ptr align 8 %66, ptr align 8 %4, i64 8, i1 false)
  call void @llvm.lifetime.end.p0(i64 8, ptr %5) #13
  br label %72

67:                                               ; preds = %2
  %68 = load ptr, ptr %3, align 8, !tbaa !11
  %69 = load i32, ptr %68, align 4
  %70 = and i32 %69, -3
  %71 = or i32 %70, 2
  store i32 %71, ptr %68, align 4
  br label %72

72:                                               ; preds = %67, %58
  ret void
}

; Function Attrs: nounwind uwtable
define dso_local ptr @raxGetData(ptr noundef %0) #0 {
  %2 = alloca ptr, align 8
  %3 = alloca ptr, align 8
  %4 = alloca ptr, align 8
  %5 = alloca ptr, align 8
  store ptr %0, ptr %3, align 8, !tbaa !11
  %6 = load ptr, ptr %3, align 8, !tbaa !11
  %7 = load i32, ptr %6, align 4
  %8 = lshr i32 %7, 1
  %9 = and i32 %8, 1
  %10 = icmp ne i32 %9, 0
  br i1 %10, label %11, label %12

11:                                               ; preds = %1
  store ptr null, ptr %2, align 8
  br label %64

12:                                               ; preds = %1
  call void @llvm.lifetime.start.p0(i64 8, ptr %4) #13
  %13 = load ptr, ptr %3, align 8, !tbaa !11
  %14 = load ptr, ptr %3, align 8, !tbaa !11
  %15 = load i32, ptr %14, align 4
  %16 = lshr i32 %15, 3
  %17 = zext i32 %16 to i64
  %18 = add i64 4, %17
  %19 = load ptr, ptr %3, align 8, !tbaa !11
  %20 = load i32, ptr %19, align 4
  %21 = lshr i32 %20, 3
  %22 = add nsw i32 %21, 4
  %23 = sext i32 %22 to i64
  %24 = urem i64 %23, 8
  %25 = sub i64 8, %24
  %26 = and i64 %25, 7
  %27 = add i64 %18, %26
  %28 = load ptr, ptr %3, align 8, !tbaa !11
  %29 = load i32, ptr %28, align 4
  %30 = lshr i32 %29, 2
  %31 = and i32 %30, 1
  %32 = icmp ne i32 %31, 0
  br i1 %32, label %33, label %34

33:                                               ; preds = %12
  br label %40

34:                                               ; preds = %12
  %35 = load ptr, ptr %3, align 8, !tbaa !11
  %36 = load i32, ptr %35, align 4
  %37 = lshr i32 %36, 3
  %38 = zext i32 %37 to i64
  %39 = mul i64 8, %38
  br label %40

40:                                               ; preds = %34, %33
  %41 = phi i64 [ 8, %33 ], [ %39, %34 ]
  %42 = add i64 %27, %41
  %43 = load ptr, ptr %3, align 8, !tbaa !11
  %44 = load i32, ptr %43, align 4
  %45 = and i32 %44, 1
  %46 = icmp ne i32 %45, 0
  br i1 %46, label %47, label %54

47:                                               ; preds = %40
  %48 = load ptr, ptr %3, align 8, !tbaa !11
  %49 = load i32, ptr %48, align 4
  %50 = lshr i32 %49, 1
  %51 = and i32 %50, 1
  %52 = icmp ne i32 %51, 0
  %53 = xor i1 %52, true
  br label %54

54:                                               ; preds = %47, %40
  %55 = phi i1 [ false, %40 ], [ %53, %47 ]
  %56 = zext i1 %55 to i32
  %57 = sext i32 %56 to i64
  %58 = mul i64 %57, 8
  %59 = add i64 %42, %58
  %60 = getelementptr inbounds nuw i8, ptr %13, i64 %59
  %61 = getelementptr inbounds i8, ptr %60, i64 -8
  store ptr %61, ptr %4, align 8, !tbaa !16
  call void @llvm.lifetime.start.p0(i64 8, ptr %5) #13
  %62 = load ptr, ptr %4, align 8, !tbaa !16
  call void @llvm.memcpy.p0.p0.i64(ptr align 8 %5, ptr align 8 %62, i64 8, i1 false)
  %63 = load ptr, ptr %5, align 8, !tbaa !16
  store ptr %63, ptr %2, align 8
  call void @llvm.lifetime.end.p0(i64 8, ptr %5) #13
  call void @llvm.lifetime.end.p0(i64 8, ptr %4) #13
  br label %64

64:                                               ; preds = %54, %11
  %65 = load ptr, ptr %2, align 8
  ret ptr %65
}

; Function Attrs: nounwind uwtable
define dso_local ptr @raxNewNode(i64 noundef %0, i32 noundef %1) #0 {
  %3 = alloca ptr, align 8
  %4 = alloca i64, align 8
  %5 = alloca i32, align 4
  %6 = alloca i64, align 8
  %7 = alloca ptr, align 8
  %8 = alloca i32, align 4
  store i64 %0, ptr %4, align 8, !tbaa !9
  store i32 %1, ptr %5, align 4, !tbaa !5
  call void @llvm.lifetime.start.p0(i64 8, ptr %6) #13
  %9 = load i64, ptr %4, align 8, !tbaa !9
  %10 = add i64 4, %9
  %11 = load i64, ptr %4, align 8, !tbaa !9
  %12 = add i64 %11, 4
  %13 = urem i64 %12, 8
  %14 = sub i64 8, %13
  %15 = and i64 %14, 7
  %16 = add i64 %10, %15
  %17 = load i64, ptr %4, align 8, !tbaa !9
  %18 = mul i64 8, %17
  %19 = add i64 %16, %18
  store i64 %19, ptr %6, align 8, !tbaa !9
  %20 = load i32, ptr %5, align 4, !tbaa !5
  %21 = icmp ne i32 %20, 0
  br i1 %21, label %22, label %25

22:                                               ; preds = %2
  %23 = load i64, ptr %6, align 8, !tbaa !9
  %24 = add i64 %23, 8
  store i64 %24, ptr %6, align 8, !tbaa !9
  br label %25

25:                                               ; preds = %22, %2
  call void @llvm.lifetime.start.p0(i64 8, ptr %7) #13
  %26 = load i64, ptr %6, align 8, !tbaa !9
  %27 = call noalias ptr @zmalloc(i64 noundef %26) #14
  store ptr %27, ptr %7, align 8, !tbaa !11
  %28 = load ptr, ptr %7, align 8, !tbaa !11
  %29 = icmp eq ptr %28, null
  br i1 %29, label %30, label %31

30:                                               ; preds = %25
  store ptr null, ptr %3, align 8
  store i32 1, ptr %8, align 4
  br label %53

31:                                               ; preds = %25
  %32 = load ptr, ptr %7, align 8, !tbaa !11
  %33 = load i32, ptr %32, align 4
  %34 = and i32 %33, -2
  %35 = or i32 %34, 0
  store i32 %35, ptr %32, align 4
  %36 = load ptr, ptr %7, align 8, !tbaa !11
  %37 = load i32, ptr %36, align 4
  %38 = and i32 %37, -3
  %39 = or i32 %38, 0
  store i32 %39, ptr %36, align 4
  %40 = load ptr, ptr %7, align 8, !tbaa !11
  %41 = load i32, ptr %40, align 4
  %42 = and i32 %41, -5
  %43 = or i32 %42, 0
  store i32 %43, ptr %40, align 4
  %44 = load i64, ptr %4, align 8, !tbaa !9
  %45 = trunc i64 %44 to i32
  %46 = load ptr, ptr %7, align 8, !tbaa !11
  %47 = load i32, ptr %46, align 4
  %48 = and i32 %45, 536870911
  %49 = shl i32 %48, 3
  %50 = and i32 %47, 7
  %51 = or i32 %50, %49
  store i32 %51, ptr %46, align 4
  %52 = load ptr, ptr %7, align 8, !tbaa !11
  store ptr %52, ptr %3, align 8
  store i32 1, ptr %8, align 4
  br label %53

53:                                               ; preds = %31, %30
  call void @llvm.lifetime.end.p0(i64 8, ptr %7) #13
  call void @llvm.lifetime.end.p0(i64 8, ptr %6) #13
  %54 = load ptr, ptr %3, align 8
  ret ptr %54
}

; Function Attrs: nounwind uwtable
define dso_local ptr @raxCompressNode(ptr noundef %0, ptr noundef %1, i64 noundef %2, ptr noundef %3) #0 {
  %5 = alloca ptr, align 8
  %6 = alloca ptr, align 8
  %7 = alloca ptr, align 8
  %8 = alloca i64, align 8
  %9 = alloca ptr, align 8
  %10 = alloca ptr, align 8
  %11 = alloca i64, align 8
  %12 = alloca i32, align 4
  %13 = alloca ptr, align 8
  %14 = alloca ptr, align 8
  store ptr %0, ptr %6, align 8, !tbaa !11
  store ptr %1, ptr %7, align 8, !tbaa !24
  store i64 %2, ptr %8, align 8, !tbaa !9
  store ptr %3, ptr %9, align 8, !tbaa !18
  %15 = load ptr, ptr %6, align 8, !tbaa !11
  %16 = load i32, ptr %15, align 4
  %17 = lshr i32 %16, 3
  %18 = icmp eq i32 %17, 0
  br i1 %18, label %19, label %25

19:                                               ; preds = %4
  %20 = load ptr, ptr %6, align 8, !tbaa !11
  %21 = load i32, ptr %20, align 4
  %22 = lshr i32 %21, 2
  %23 = and i32 %22, 1
  %24 = icmp eq i32 %23, 0
  br label %25

25:                                               ; preds = %19, %4
  %26 = phi i1 [ false, %4 ], [ %24, %19 ]
  %27 = xor i1 %26, true
  %28 = xor i1 %27, true
  %29 = zext i1 %28 to i32
  %30 = sext i32 %29 to i64
  %31 = call i64 @llvm.expect.i64(i64 %30, i64 1)
  %32 = icmp ne i64 %31, 0
  br i1 %32, label %33, label %34

33:                                               ; preds = %25
  br label %36

34:                                               ; preds = %25
  call void @_serverAssert(ptr noundef @.str.2, ptr noundef @.str.1, i32 noundef 375)
  call void @abort() #16
  unreachable

35:                                               ; No predecessors!
  br label %36

36:                                               ; preds = %35, %33
  call void @llvm.lifetime.start.p0(i64 8, ptr %10) #13
  store ptr null, ptr %10, align 8, !tbaa !16
  call void @llvm.lifetime.start.p0(i64 8, ptr %11) #13
  %37 = call ptr @raxNewNode(i64 noundef 0, i32 noundef 0)
  %38 = load ptr, ptr %9, align 8, !tbaa !18
  store ptr %37, ptr %38, align 8, !tbaa !11
  %39 = load ptr, ptr %9, align 8, !tbaa !18
  %40 = load ptr, ptr %39, align 8, !tbaa !11
  %41 = icmp eq ptr %40, null
  br i1 %41, label %42, label %43

42:                                               ; preds = %36
  store ptr null, ptr %5, align 8
  store i32 1, ptr %12, align 4
  br label %174

43:                                               ; preds = %36
  %44 = load i64, ptr %8, align 8, !tbaa !9
  %45 = add i64 4, %44
  %46 = load i64, ptr %8, align 8, !tbaa !9
  %47 = add i64 %46, 4
  %48 = urem i64 %47, 8
  %49 = sub i64 8, %48
  %50 = and i64 %49, 7
  %51 = add i64 %45, %50
  %52 = add i64 %51, 8
  store i64 %52, ptr %11, align 8, !tbaa !9
  %53 = load ptr, ptr %6, align 8, !tbaa !11
  %54 = load i32, ptr %53, align 4
  %55 = and i32 %54, 1
  %56 = icmp ne i32 %55, 0
  br i1 %56, label %57, label %69

57:                                               ; preds = %43
  %58 = load ptr, ptr %6, align 8, !tbaa !11
  %59 = call ptr @raxGetData(ptr noundef %58)
  store ptr %59, ptr %10, align 8, !tbaa !16
  %60 = load ptr, ptr %6, align 8, !tbaa !11
  %61 = load i32, ptr %60, align 4
  %62 = lshr i32 %61, 1
  %63 = and i32 %62, 1
  %64 = icmp ne i32 %63, 0
  br i1 %64, label %68, label %65

65:                                               ; preds = %57
  %66 = load i64, ptr %11, align 8, !tbaa !9
  %67 = add i64 %66, 8
  store i64 %67, ptr %11, align 8, !tbaa !9
  br label %68

68:                                               ; preds = %65, %57
  br label %69

69:                                               ; preds = %68, %43
  call void @llvm.lifetime.start.p0(i64 8, ptr %13) #13
  %70 = load ptr, ptr %6, align 8, !tbaa !11
  %71 = load i64, ptr %11, align 8, !tbaa !9
  %72 = call ptr @zrealloc(ptr noundef %70, i64 noundef %71) #15
  store ptr %72, ptr %13, align 8, !tbaa !11
  %73 = load ptr, ptr %13, align 8, !tbaa !11
  %74 = icmp eq ptr %73, null
  br i1 %74, label %75, label %78

75:                                               ; preds = %69
  %76 = load ptr, ptr %9, align 8, !tbaa !18
  %77 = load ptr, ptr %76, align 8, !tbaa !11
  call void @zfree(ptr noundef %77)
  store ptr null, ptr %5, align 8
  store i32 1, ptr %12, align 4
  br label %173

78:                                               ; preds = %69
  %79 = load ptr, ptr %13, align 8, !tbaa !11
  store ptr %79, ptr %6, align 8, !tbaa !11
  %80 = load ptr, ptr %6, align 8, !tbaa !11
  %81 = load i32, ptr %80, align 4
  %82 = and i32 %81, -5
  %83 = or i32 %82, 4
  store i32 %83, ptr %80, align 4
  %84 = load i64, ptr %8, align 8, !tbaa !9
  %85 = trunc i64 %84 to i32
  %86 = load ptr, ptr %6, align 8, !tbaa !11
  %87 = load i32, ptr %86, align 4
  %88 = and i32 %85, 536870911
  %89 = shl i32 %88, 3
  %90 = and i32 %87, 7
  %91 = or i32 %90, %89
  store i32 %91, ptr %86, align 4
  %92 = load ptr, ptr %6, align 8, !tbaa !11
  %93 = getelementptr inbounds nuw %struct.raxNode, ptr %92, i32 0, i32 1
  %94 = getelementptr inbounds [0 x i8], ptr %93, i64 0, i64 0
  %95 = load ptr, ptr %7, align 8, !tbaa !24
  %96 = load i64, ptr %8, align 8, !tbaa !9
  call void @llvm.memcpy.p0.p0.i64(ptr align 4 %94, ptr align 1 %95, i64 %96, i1 false)
  %97 = load ptr, ptr %6, align 8, !tbaa !11
  %98 = load i32, ptr %97, align 4
  %99 = and i32 %98, 1
  %100 = icmp ne i32 %99, 0
  br i1 %100, label %101, label %104

101:                                              ; preds = %78
  %102 = load ptr, ptr %6, align 8, !tbaa !11
  %103 = load ptr, ptr %10, align 8, !tbaa !16
  call void @raxSetData(ptr noundef %102, ptr noundef %103)
  br label %104

104:                                              ; preds = %101, %78
  call void @llvm.lifetime.start.p0(i64 8, ptr %14) #13
  %105 = load ptr, ptr %6, align 8, !tbaa !11
  %106 = load ptr, ptr %6, align 8, !tbaa !11
  %107 = load i32, ptr %106, align 4
  %108 = lshr i32 %107, 3
  %109 = zext i32 %108 to i64
  %110 = add i64 4, %109
  %111 = load ptr, ptr %6, align 8, !tbaa !11
  %112 = load i32, ptr %111, align 4
  %113 = lshr i32 %112, 3
  %114 = add nsw i32 %113, 4
  %115 = sext i32 %114 to i64
  %116 = urem i64 %115, 8
  %117 = sub i64 8, %116
  %118 = and i64 %117, 7
  %119 = add i64 %110, %118
  %120 = load ptr, ptr %6, align 8, !tbaa !11
  %121 = load i32, ptr %120, align 4
  %122 = lshr i32 %121, 2
  %123 = and i32 %122, 1
  %124 = icmp ne i32 %123, 0
  br i1 %124, label %125, label %126

125:                                              ; preds = %104
  br label %132

126:                                              ; preds = %104
  %127 = load ptr, ptr %6, align 8, !tbaa !11
  %128 = load i32, ptr %127, align 4
  %129 = lshr i32 %128, 3
  %130 = zext i32 %129 to i64
  %131 = mul i64 8, %130
  br label %132

132:                                              ; preds = %126, %125
  %133 = phi i64 [ 8, %125 ], [ %131, %126 ]
  %134 = add i64 %119, %133
  %135 = load ptr, ptr %6, align 8, !tbaa !11
  %136 = load i32, ptr %135, align 4
  %137 = and i32 %136, 1
  %138 = icmp ne i32 %137, 0
  br i1 %138, label %139, label %146

139:                                              ; preds = %132
  %140 = load ptr, ptr %6, align 8, !tbaa !11
  %141 = load i32, ptr %140, align 4
  %142 = lshr i32 %141, 1
  %143 = and i32 %142, 1
  %144 = icmp ne i32 %143, 0
  %145 = xor i1 %144, true
  br label %146

146:                                              ; preds = %139, %132
  %147 = phi i1 [ false, %132 ], [ %145, %139 ]
  %148 = zext i1 %147 to i32
  %149 = sext i32 %148 to i64
  %150 = mul i64 %149, 8
  %151 = add i64 %134, %150
  %152 = getelementptr inbounds nuw i8, ptr %105, i64 %151
  %153 = getelementptr inbounds i8, ptr %152, i64 -8
  %154 = load ptr, ptr %6, align 8, !tbaa !11
  %155 = load i32, ptr %154, align 4
  %156 = and i32 %155, 1
  %157 = icmp ne i32 %156, 0
  br i1 %157, label %158, label %165

158:                                              ; preds = %146
  %159 = load ptr, ptr %6, align 8, !tbaa !11
  %160 = load i32, ptr %159, align 4
  %161 = lshr i32 %160, 1
  %162 = and i32 %161, 1
  %163 = icmp ne i32 %162, 0
  %164 = xor i1 %163, true
  br label %165

165:                                              ; preds = %158, %146
  %166 = phi i1 [ false, %146 ], [ %164, %158 ]
  %167 = select i1 %166, i64 8, i64 0
  %168 = sub i64 0, %167
  %169 = getelementptr inbounds i8, ptr %153, i64 %168
  store ptr %169, ptr %14, align 8, !tbaa !18
  %170 = load ptr, ptr %14, align 8, !tbaa !18
  %171 = load ptr, ptr %9, align 8, !tbaa !18
  call void @llvm.memcpy.p0.p0.i64(ptr align 8 %170, ptr align 8 %171, i64 8, i1 false)
  %172 = load ptr, ptr %6, align 8, !tbaa !11
  store ptr %172, ptr %5, align 8
  store i32 1, ptr %12, align 4
  call void @llvm.lifetime.end.p0(i64 8, ptr %14) #13
  br label %173

173:                                              ; preds = %165, %75
  call void @llvm.lifetime.end.p0(i64 8, ptr %13) #13
  br label %174

174:                                              ; preds = %173, %42
  call void @llvm.lifetime.end.p0(i64 8, ptr %11) #13
  call void @llvm.lifetime.end.p0(i64 8, ptr %10) #13
  %175 = load ptr, ptr %5, align 8
  ret ptr %175
}