; Function Attrs: nounwind uwtable
define dso_local ptr @raxCompressNode(ptr noundef %0, ptr noundef readonly captures(none) %1, i64 noundef %2, ptr noundef captures(none) %3) local_unnamed_addr #1 {
  %5 = load i32, ptr %0, align 4
  %6 = icmp ult i32 %5, 4
  br i1 %6, label %8, label %7, !prof !14

7:                                                ; preds = %4
  tail call void @_serverAssert(ptr noundef nonnull @.str.2, ptr noundef nonnull @.str.1, i32 noundef 375) #26
  tail call void @abort() #28
  unreachable

8:                                                ; preds = %4
  %9 = tail call noalias dereferenceable_or_null(8) ptr @zmalloc(i64 noundef 8) #25
  %10 = icmp eq ptr %9, null
  br i1 %10, label %raxNewNode.exit.thread, label %11

raxNewNode.exit.thread:                           ; preds = %8
  store ptr null, ptr %3, align 8, !tbaa !11
  br label %83

11:                                               ; preds = %8
  store i32 0, ptr %9, align 4
  store ptr %9, ptr %3, align 8, !tbaa !11
  %12 = add i64 %2, 4
  %13 = sub i64 4, %2
  %14 = and i64 %13, 7
  %15 = add i64 %12, %14
  %16 = add i64 %15, 8
  %17 = load i32, ptr %0, align 4
  %18 = and i32 %17, 1
  %.not = icmp eq i32 %18, 0
  br i1 %.not, label %34, label %19

19:                                               ; preds = %11
  %20 = and i32 %17, 2
  %.not.i = icmp eq i32 %20, 0
  br i1 %.not.i, label %21, label %raxGetData.exit

21:                                               ; preds = %19
  %22 = lshr i32 %17, 3
  %23 = zext nneg i32 %22 to i64
  %24 = xor i32 %22, 3
  %.neg.i = add nuw nsw i32 %24, 1
  %25 = and i32 %.neg.i, 7
  %26 = zext nneg i32 %25 to i64
  %27 = and i32 %17, 4
  %.not11.i = icmp eq i32 %27, 0
  %28 = shl nuw nsw i64 %23, 3
  %spec.select.i = select i1 %.not11.i, i64 %28, i64 8
  %29 = getelementptr inbounds nuw i8, ptr %0, i64 %23
  %30 = getelementptr inbounds nuw i8, ptr %29, i64 4
  %31 = getelementptr inbounds nuw i8, ptr %30, i64 %26
  %32 = getelementptr inbounds nuw i8, ptr %31, i64 %spec.select.i
  %.0.copyload.i = load ptr, ptr %32, align 8
  br label %raxGetData.exit

raxGetData.exit:                                  ; preds = %19, %21
  %.0.i = phi ptr [ %.0.copyload.i, %21 ], [ null, %19 ]
  %33 = add i64 %15, 16
  %spec.select46 = select i1 %.not.i, i64 %33, i64 %16
  br label %34

34:                                               ; preds = %raxGetData.exit, %11
  %.037 = phi ptr [ null, %11 ], [ %.0.i, %raxGetData.exit ]
  %.036 = phi i64 [ %16, %11 ], [ %spec.select46, %raxGetData.exit ]
  %35 = tail call ptr @zrealloc(ptr noundef nonnull %0, i64 noundef %.036) #27
  %36 = icmp eq ptr %35, null
  br i1 %36, label %37, label %39

37:                                               ; preds = %34
  %38 = load ptr, ptr %3, align 8, !tbaa !11
  tail call void @zfree(ptr noundef %38) #26
  br label %83

39:                                               ; preds = %34
  %40 = load i32, ptr %35, align 4
  %41 = trunc i64 %2 to i32
  %42 = shl i32 %41, 3
  %43 = and i32 %40, 3
  %44 = or disjoint i32 %42, %43
  %45 = or disjoint i32 %44, 4
  store i32 %45, ptr %35, align 4
  %46 = getelementptr inbounds nuw i8, ptr %35, i64 4
  tail call void @llvm.memcpy.p0.p0.i64(ptr nonnull align 4 %46, ptr align 1 %1, i64 %2, i1 false)
  %47 = and i32 %40, 1
  %.not40 = icmp eq i32 %47, 0
  br i1 %.not40, label %60, label %48

48:                                               ; preds = %39
  %.not.i48 = icmp eq ptr %.037, null
  br i1 %.not.i48, label %58, label %49

49:                                               ; preds = %48
  %50 = or disjoint i32 %42, 5
  %51 = and i64 %2, 536870911
  %52 = xor i64 %2, 3
  %.neg.i49 = add i64 %52, 1
  %53 = and i64 %.neg.i49, 7
  %54 = getelementptr inbounds nuw i8, ptr %35, i64 %51
  %55 = getelementptr inbounds nuw i8, ptr %54, i64 4
  %56 = getelementptr inbounds nuw i8, ptr %55, i64 %53
  %57 = getelementptr inbounds nuw i8, ptr %56, i64 8
  store ptr %.037, ptr %57, align 8
  br label %raxSetData.exit

58:                                               ; preds = %48
  %59 = or disjoint i32 %42, 7
  br label %raxSetData.exit

raxSetData.exit:                                  ; preds = %49, %58
  %.sink.i = phi i32 [ %59, %58 ], [ %50, %49 ]
  store i32 %.sink.i, ptr %35, align 4
  br label %60

60:                                               ; preds = %raxSetData.exit, %39
  %61 = phi i32 [ %.sink.i, %raxSetData.exit ], [ %45, %39 ]
  %62 = lshr i32 %61, 3
  %63 = zext nneg i32 %62 to i64
  %64 = xor i32 %62, 3
  %.neg = add nuw nsw i32 %64, 1
  %65 = and i32 %.neg, 7
  %66 = zext nneg i32 %65 to i64
  %67 = and i32 %61, 4
  %.not41 = icmp eq i32 %67, 0
  %68 = shl nuw nsw i64 %63, 3
  %spec.select47 = select i1 %.not41, i64 %68, i64 8
  %69 = and i32 %61, 1
  %.not42 = icmp eq i32 %69, 0
  %70 = shl i32 %61, 2
  %71 = and i32 %70, 8
  %72 = xor i32 %71, 8
  %narrow = select i1 %.not42, i32 0, i32 %72
  %73 = zext nneg i32 %narrow to i64
  %74 = getelementptr inbounds nuw i8, ptr %35, i64 %63
  %75 = getelementptr inbounds nuw i8, ptr %74, i64 4
  %76 = getelementptr inbounds nuw i8, ptr %75, i64 %66
  %77 = getelementptr inbounds nuw i8, ptr %76, i64 %spec.select47
  %78 = getelementptr inbounds nuw i8, ptr %77, i64 %73
  %79 = getelementptr inbounds i8, ptr %78, i64 -8
  %80 = sub nsw i64 0, %73
  %81 = getelementptr inbounds i8, ptr %79, i64 %80
  %82 = load i64, ptr %3, align 8
  store i64 %82, ptr %81, align 8
  br label %83

83:                                               ; preds = %raxNewNode.exit.thread, %37, %60
  %.0 = phi ptr [ null, %37 ], [ %35, %60 ], [ null, %raxNewNode.exit.thread ]
  ret ptr %.0
}